target datalayout = "e-m:e-p270:32:32-p271:32:32-p272:64:64-i64:64-i128:128-f80:128-n8:16:32:64-S128"
target triple = "x86_64-pc-linux-gnu"

; Function Attrs: mustprogress nounwind uwtable
define internal noundef zeroext i1 @_ZN12_GLOBAL__N_18CxxScopeIN5Yosys5RTLIL8IdStringEE18is_character_legalEci(ptr noundef nonnull align 8 dereferenceable(128) %0, i8 noundef signext %1, i32 noundef %2) unnamed_addr #6 align 2 {
  %4 = alloca ptr, align 8
  %5 = alloca i8, align 1
  %6 = alloca i32, align 4
  store ptr %0, ptr %4, align 8, !tbaa !190
  store i8 %1, ptr %5, align 1, !tbaa !46
  store i32 %2, ptr %6, align 4, !tbaa !127
  %7 = load i8, ptr %5, align 1, !tbaa !46
  %8 = sext i8 %7 to i32
  %9 = call i32 @isascii(i32 noundef %8) #3
  %10 = icmp ne i32 %9, 0
  br i1 %10, label %11, label %34

11:                                               ; preds = %3
  %12 = load i8, ptr %5, align 1, !tbaa !46
  %13 = sext i8 %12 to i32
  %14 = call i32 @isalpha(i32 noundef %13) #23
  %15 = icmp ne i32 %14, 0
  br i1 %15, label %32, label %16

16:                                               ; preds = %11
  %17 = load i8, ptr %5, align 1, !tbaa !46
  %18 = sext i8 %17 to i32
  %19 = call i32 @isdigit(i32 noundef %18) #23
  %20 = icmp ne i32 %19, 0
  br i1 %20, label %21, label %24

21:                                               ; preds = %16
  %22 = load i32, ptr %6, align 4, !tbaa !127
  %23 = icmp sgt i32 %22, 0
  br i1 %23, label %32, label %24

24:                                               ; preds = %21, %16
  %25 = load i8, ptr %5, align 1, !tbaa !46
  %26 = sext i8 %25 to i32
  %27 = icmp eq i32 %26, 95
  br i1 %27, label %32, label %28

28:                                               ; preds = %24
  %29 = load i8, ptr %5, align 1, !tbaa !46
  %30 = sext i8 %29 to i32
  %31 = icmp eq i32 %30, 36
  br label %32

32:                                               ; preds = %28, %24, %21, %11
  %33 = phi i1 [ true, %24 ], [ true, %21 ], [ true, %11 ], [ %31, %28 ]
  br label %34

34:                                               ; preds = %32, %3
  %35 = phi i1 [ false, %3 ], [ %33, %32 ]
  ret i1 %35
}