; Function Attrs: mustprogress nofree nounwind willreturn memory(read) uwtable
define internal noundef zeroext i1 @_ZN12_GLOBAL__N_18CxxScopeIN5Yosys5RTLIL8IdStringEE18is_character_legalEci(ptr nonnull readnone align 8 captures(none) %0, i8 noundef signext %1, i32 noundef %2) unnamed_addr #15 align 2 {
  %4 = sext i8 %1 to i32
  %isascii = icmp sgt i8 %1, -1
  br i1 %isascii, label %5, label %11

5:                                                ; preds = %3
  %6 = tail call i32 @isalpha(i32 noundef %4) #34
  %.not = icmp eq i32 %6, 0
  br i1 %.not, label %7, label %11

7:                                                ; preds = %5
  %isdigittmp = add nsw i32 %4, -48
  %isdigit = icmp ult i32 %isdigittmp, 10
  %8 = icmp sgt i32 %2, 0
  %or.cond = and i1 %8, %isdigit
  %9 = icmp eq i8 %1, 95
  %or.cond4 = or i1 %9, %or.cond
  %10 = icmp eq i8 %1, 36
  %spec.select = or i1 %10, %or.cond4
  br label %11

11:                                               ; preds = %7, %5, %3
  %12 = phi i1 [ false, %3 ], [ true, %5 ], [ %spec.select, %7 ]
  ret i1 %12
}